; Function Attrs: mustprogress uwtable
define hidden noundef zeroext i1 @_ZN15model_evaluator8is_falseEP4expr(ptr nocapture noundef nonnull readonly align 8 dereferenceable(8) %this, ptr noundef %t) local_unnamed_addr #3 align 2 personality ptr @__gxx_personality_v0 {
entry:
  %tmp = alloca %class.obj_ref, align 8
  %0 = load ptr, ptr %this, align 8
  %m_manager.i.i = getelementptr inbounds i8, ptr %0, i64 8
  %1 = load ptr, ptr %m_manager.i.i, align 8
  store ptr null, ptr %tmp, align 8
  %m_manager.i = getelementptr inbounds i8, ptr %tmp, i64 8
  store ptr %1, ptr %m_manager.i, align 8
  %call2 = invoke noundef zeroext i1 @_ZN15model_evaluator4evalEP4exprR7obj_refIS0_11ast_managerEb(ptr noundef nonnull align 8 dereferenceable(8) %this, ptr noundef %t, ptr noundef nonnull align 8 dereferenceable(16) %tmp, i1 noundef zeroext true)
          to label %invoke.cont unwind label %lpad

invoke.cont:                                      ; preds = %entry
  br i1 %call2, label %invoke.cont3, label %land.endthread-pre-split

invoke.cont3:                                     ; preds = %invoke.cont
  %2 = load ptr, ptr %this, align 8
  %m_manager.i.i1 = getelementptr inbounds i8, ptr %2, i64 8
  %3 = load ptr, ptr %m_manager.i.i1, align 8
  %4 = load ptr, ptr %tmp, align 8
  %m_false.i = getelementptr inbounds i8, ptr %3, i64 864
  %5 = load ptr, ptr %m_false.i, align 8
  %cmp.i = icmp eq ptr %5, %4
  br label %land.end

land.endthread-pre-split:                         ; preds = %invoke.cont
  %.pr = load ptr, ptr %tmp, align 8
  br label %land.end

land.end:                                         ; preds = %land.endthread-pre-split, %invoke.cont3
  %6 = phi ptr [ %.pr, %land.endthread-pre-split ], [ %4, %invoke.cont3 ]
  %7 = phi i1 [ false, %land.endthread-pre-split ], [ %cmp.i, %invoke.cont3 ]
  %tobool.not.i.i = icmp eq ptr %6, null
  br i1 %tobool.not.i.i, label %_ZN7obj_refI4expr11ast_managerED2Ev.exit, label %if.then.i.i.i

if.then.i.i.i:                                    ; preds = %land.end
  %8 = load ptr, ptr %m_manager.i, align 8
  %m_ref_count.i.i.i.i = getelementptr inbounds i8, ptr %6, i64 8
  %9 = load i32, ptr %m_ref_count.i.i.i.i, align 4
  %dec.i.i.i.i = add i32 %9, -1
  store i32 %dec.i.i.i.i, ptr %m_ref_count.i.i.i.i, align 4
  %cmp.i.i.i = icmp eq i32 %dec.i.i.i.i, 0
  br i1 %cmp.i.i.i, label %if.then2.i.i.i, label %_ZN7obj_refI4expr11ast_managerED2Ev.exit

if.then2.i.i.i:                                   ; preds = %if.then.i.i.i
  invoke void @_ZN11ast_manager11delete_nodeEP3ast(ptr noundef nonnull align 8 dereferenceable(976) %8, ptr noundef nonnull %6)
          to label %_ZN7obj_refI4expr11ast_managerED2Ev.exit unwind label %terminate.lpad.i

terminate.lpad.i:                                 ; preds = %if.then2.i.i.i
  %10 = landingpad { ptr, i32 }
          catch ptr null
  %11 = extractvalue { ptr, i32 } %10, 0
  tail call void @__clang_call_terminate(ptr %11) #19
  unreachable

_ZN7obj_refI4expr11ast_managerED2Ev.exit:         ; preds = %land.end, %if.then.i.i.i, %if.then2.i.i.i
  ret i1 %7

lpad:                                             ; preds = %entry
  %12 = landingpad { ptr, i32 }
          cleanup
  call void @_ZN7obj_refI4expr11ast_managerED2Ev(ptr noundef nonnull align 8 dereferenceable(16) %tmp) #18
  resume { ptr, i32 } %12
}